target datalayout = "e-m:e-p270:32:32-p271:32:32-p272:64:64-i64:64-i128:128-f80:128-n8:16:32:64-S128"
target triple = "x86_64-pc-linux-gnu"

%"union.absl::flags_internal::FlagHelpMsg" = type { ptr }
%"class.absl::flags_internal::Flag" = type { %"class.absl::flags_internal::FlagImpl", %"struct.absl::flags_internal::FlagValue" }
%"class.absl::flags_internal::FlagImpl" = type { %"class.absl::CommandLineFlag", ptr, ptr, ptr, ptr, %"union.absl::flags_internal::FlagHelpMsg", i8, i8, %"class.absl::once_flag", %"class.absl::flags_internal::SequenceLock", ptr, %"union.absl::flags_internal::FlagDefaultSrc", [8 x i8] }
%"class.absl::CommandLineFlag" = type { ptr }
%"class.absl::once_flag" = type { %"struct.std::atomic" }
%"struct.std::atomic" = type { %"struct.std::__atomic_base" }
%"struct.std::__atomic_base" = type { i32 }
%"class.absl::flags_internal::SequenceLock" = type { %"struct.std::atomic.0" }
%"struct.std::atomic.0" = type { %"struct.std::__atomic_base.1" }
%"struct.std::__atomic_base.1" = type { i64 }
%"union.absl::flags_internal::FlagDefaultSrc" = type { i64 }
%"struct.absl::flags_internal::FlagValue" = type { %"struct.absl::flags_internal::FlagOneWordValue" }
%"struct.absl::flags_internal::FlagOneWordValue" = type { %"struct.std::atomic.0" }
%class.anon.19 = type { i8 }
%union.U = type { i32 }
%"struct.absl::flags_internal::FlagValueAndInitBit" = type { i32, i8 }

; Function Attrs: noinline noreturn nounwind uwtable
define linkonce_odr hidden void @__clang_call_terminate(ptr noundef %0) #9 comdat {
  %2 = call ptr @__cxa_begin_catch(ptr %0) #15
  call void @_ZSt9terminatev() #16
  unreachable
}

; Function Attrs: mustprogress nounwind uwtable
define linkonce_odr dso_local noundef i32 @_ZStanSt12memory_orderSt23__memory_order_modifier(i32 noundef %0, i32 noundef %1) #4 comdat {
  %3 = alloca i32, align 4
  %4 = alloca i32, align 4
  store i32 %0, ptr %3, align 4, !tbaa !60
  store i32 %1, ptr %4, align 4, !tbaa !64
  %5 = load i32, ptr %3, align 4, !tbaa !60
  %6 = load i32, ptr %4, align 4, !tbaa !64
  %7 = and i32 %5, %6
  ret i32 %7
}

; Function Attrs: inlinehint mustprogress nounwind uwtable
define linkonce_odr dso_local i64 @_ZN4absl8bit_castINS_14flags_internal19FlagValueAndInitBitIiEElTnNSt9enable_ifIXaaaaeqstT_stT0_sr3std21is_trivially_copyableIS6_EE5valuesr3std21is_trivially_copyableIS5_EE5valueEiE4typeELi0EEES5_RKS6_(ptr noundef nonnull align 8 dereferenceable(8) %0) #3 comdat {
  %2 = alloca %"struct.absl::flags_internal::FlagValueAndInitBit", align 8
  %3 = alloca ptr, align 8
  store ptr %0, ptr %3, align 8, !tbaa !62
  %4 = load ptr, ptr %3, align 8, !tbaa !62
  call void @llvm.memcpy.p0.p0.i64(ptr align 8 %2, ptr align 8 %4, i64 8, i1 false)
  %5 = load i64, ptr %2, align 8
  ret i64 %5
}

; Function Attrs: alwaysinline mustprogress nounwind uwtable
define linkonce_odr dso_local noundef i64 @_ZNKSt13__atomic_baseIlE4loadESt12memory_order(ptr noundef nonnull align 8 dereferenceable(8) %0, i32 noundef %1) #8 comdat align 2 personality ptr @__gxx_personality_v0 {
  %3 = alloca ptr, align 8
  %4 = alloca i32, align 4
  %5 = alloca i32, align 4
  %6 = alloca i64, align 8
  store ptr %0, ptr %3, align 8, !tbaa !58
  store i32 %1, ptr %4, align 4, !tbaa !60
  %7 = load ptr, ptr %3, align 8
  call void @llvm.lifetime.start.p0(i64 4, ptr %5) #15
  %8 = load i32, ptr %4, align 4, !tbaa !60
  %9 = invoke noundef i32 @_ZStanSt12memory_orderSt23__memory_order_modifier(i32 noundef %8, i32 noundef 65535)
          to label %10 unwind label %27

10:                                               ; preds = %2
  store i32 %9, ptr %5, align 4, !tbaa !60
  br label %11

11:                                               ; preds = %10
  br label %12

12:                                               ; preds = %11
  br label %13

13:                                               ; preds = %12
  br label %14

14:                                               ; preds = %13
  br label %15

15:                                               ; preds = %14
  br label %16

16:                                               ; preds = %15
  %17 = getelementptr inbounds nuw %"struct.std::__atomic_base.1", ptr %7, i32 0, i32 0
  %18 = load i32, ptr %4, align 4, !tbaa !60
  switch i32 %18, label %19 [
    i32 1, label %21
    i32 2, label %21
    i32 5, label %23
  ]

19:                                               ; preds = %16
  %20 = load atomic i64, ptr %17 monotonic, align 8
  store i64 %20, ptr %6, align 8
  br label %25

21:                                               ; preds = %16, %16
  %22 = load atomic i64, ptr %17 acquire, align 8
  store i64 %22, ptr %6, align 8
  br label %25

23:                                               ; preds = %16
  %24 = load atomic i64, ptr %17 seq_cst, align 8
  store i64 %24, ptr %6, align 8
  br label %25

25:                                               ; preds = %23, %21, %19
  %26 = load i64, ptr %6, align 8, !tbaa !17
  call void @llvm.lifetime.end.p0(i64 4, ptr %5) #15
  ret i64 %26

27:                                               ; preds = %2
  %28 = landingpad { ptr, i32 }
          catch ptr null
  %29 = extractvalue { ptr, i32 } %28, 0
  call void @__clang_call_terminate(ptr %29) #16
  unreachable
}

; Function Attrs: mustprogress nounwind uwtable
define linkonce_odr dso_local void @_ZZNK4absl14flags_internal4FlagIiE3GetEvEN1UD2Ev(ptr noundef nonnull align 4 dereferenceable(4) %0) unnamed_addr #4 comdat align 2 {
  %2 = alloca ptr, align 8
  store ptr %0, ptr %2, align 8, !tbaa !48
  ret void
}

; Function Attrs: mustprogress uwtable
define linkonce_odr dso_local void @_ZNK4absl14flags_internal8FlagImpl4ReadIiTnNSt9enable_ifIXeqclsr14flags_internalE11StorageKindIT_EELNS0_20FlagValueStorageKindE0EEiE4typeELi0EEEvPS4_(ptr noundef nonnull align 8 dereferenceable(88) %0, ptr noundef %1) #1 comdat align 2 {
  %3 = alloca ptr, align 8
  %4 = alloca ptr, align 8
  %5 = alloca %"struct.absl::flags_internal::FlagValueAndInitBit", align 8
  %6 = alloca i64, align 8
  store ptr %0, ptr %3, align 8, !tbaa !56
  store ptr %1, ptr %4, align 8, !tbaa !12
  %7 = load ptr, ptr %3, align 8
  call void @llvm.lifetime.start.p0(i64 8, ptr %5) #15
  call void @llvm.lifetime.start.p0(i64 8, ptr %6) #15
  %8 = call noundef i64 @_ZNK4absl14flags_internal8FlagImpl11ReadOneWordEv(ptr noundef nonnull align 8 dereferenceable(88) %7)
  store i64 %8, ptr %6, align 8, !tbaa !17
  %9 = call i64 @_ZN4absl8bit_castINS_14flags_internal19FlagValueAndInitBitIiEElTnNSt9enable_ifIXaaaaeqstT_stT0_sr3std21is_trivially_copyableIS6_EE5valuesr3std21is_trivially_copyableIS5_EE5valueEiE4typeELi0EEES5_RKS6_(ptr noundef nonnull align 8 dereferenceable(8) %6)
  store i64 %9, ptr %5, align 8
  %10 = getelementptr inbounds nuw %"struct.absl::flags_internal::FlagValueAndInitBit", ptr %5, i32 0, i32 0
  %11 = load i32, ptr %10, align 8, !tbaa !54
  %12 = load ptr, ptr %4, align 8, !tbaa !12
  store i32 %11, ptr %12, align 4, !tbaa !14
  call void @llvm.lifetime.end.p0(i64 8, ptr %6) #15
  call void @llvm.lifetime.end.p0(i64 8, ptr %5) #15
  ret void
}

; Function Attrs: mustprogress uwtable
define linkonce_odr dso_local noundef zeroext i1 @_ZNK4absl14flags_internal9FlagValueIiLNS0_20FlagValueStorageKindE0EE3GetERKNS0_12SequenceLockERi(ptr noundef nonnull align 8 dereferenceable(8) %0, ptr noundef nonnull align 8 dereferenceable(8) %1, ptr noundef nonnull align 4 dereferenceable(4) %2) #1 comdat align 2 {
  %4 = alloca i1, align 1
  %5 = alloca ptr, align 8
  %6 = alloca ptr, align 8
  %7 = alloca ptr, align 8
  %8 = alloca i64, align 8
  %9 = alloca i32, align 4
  %10 = alloca %"struct.absl::flags_internal::FlagValueAndInitBit", align 8
  store ptr %0, ptr %5, align 8, !tbaa !50
  store ptr %1, ptr %6, align 8, !tbaa !52
  store ptr %2, ptr %7, align 8, !tbaa !12
  %11 = load ptr, ptr %5, align 8
  call void @llvm.lifetime.start.p0(i64 8, ptr %8) #15
  %12 = getelementptr inbounds nuw %"struct.absl::flags_internal::FlagOneWordValue", ptr %11, i32 0, i32 0
  %13 = call noundef i64 @_ZNKSt13__atomic_baseIlE4loadESt12memory_order(ptr noundef nonnull align 8 dereferenceable(8) %12, i32 noundef 2) #15
  store i64 %13, ptr %8, align 8, !tbaa !17
  %14 = load i64, ptr %8, align 8, !tbaa !17
  %15 = icmp eq i64 %14, 0
  %16 = zext i1 %15 to i64
  %17 = call i64 @llvm.expect.i64(i64 %16, i64 0)
  %18 = icmp ne i64 %17, 0
  br i1 %18, label %19, label %20

19:                                               ; preds = %3
  store i1 false, ptr %4, align 1
  store i32 1, ptr %9, align 4
  br label %25

20:                                               ; preds = %3
  call void @llvm.lifetime.start.p0(i64 8, ptr %10) #15
  %21 = call i64 @_ZN4absl8bit_castINS_14flags_internal19FlagValueAndInitBitIiEElTnNSt9enable_ifIXaaaaeqstT_stT0_sr3std21is_trivially_copyableIS6_EE5valuesr3std21is_trivially_copyableIS5_EE5valueEiE4typeELi0EEES5_RKS6_(ptr noundef nonnull align 8 dereferenceable(8) %8)
  store i64 %21, ptr %10, align 8
  %22 = getelementptr inbounds nuw %"struct.absl::flags_internal::FlagValueAndInitBit", ptr %10, i32 0, i32 0
  %23 = load i32, ptr %22, align 8, !tbaa !54
  %24 = load ptr, ptr %7, align 8, !tbaa !12
  store i32 %23, ptr %24, align 4, !tbaa !14
  call void @llvm.lifetime.end.p0(i64 8, ptr %10) #15
  store i1 true, ptr %4, align 1
  store i32 1, ptr %9, align 4
  br label %25

25:                                               ; preds = %20, %19
  call void @llvm.lifetime.end.p0(i64 8, ptr %8) #15
  %26 = load i1, ptr %4, align 1
  ret i1 %26
}

; Function Attrs: mustprogress nounwind uwtable
define linkonce_odr dso_local void @_ZZNK4absl14flags_internal4FlagIiE3GetEvEN1UC2Ev(ptr noundef nonnull align 4 dereferenceable(4) %0) unnamed_addr #4 comdat align 2 {
  %2 = alloca ptr, align 8
  store ptr %0, ptr %2, align 8, !tbaa !48
  ret void
}

; Function Attrs: mustprogress uwtable
define linkonce_odr dso_local noundef i32 @_ZNK4absl14flags_internal4FlagIiE3GetEv(ptr noundef nonnull align 8 dereferenceable(96) %0) #1 comdat align 2 personality ptr @__gxx_personality_v0 {
  %2 = alloca ptr, align 8
  %3 = alloca %union.U, align 4
  %4 = alloca ptr, align 8
  %5 = alloca i32, align 4
  store ptr %0, ptr %2, align 8, !tbaa !23
  %6 = load ptr, ptr %2, align 8
  call void @llvm.lifetime.start.p0(i64 4, ptr %3) #15
  call void @_ZZNK4absl14flags_internal4FlagIiE3GetEvEN1UC2Ev(ptr noundef nonnull align 4 dereferenceable(4) %3)
  %7 = getelementptr inbounds nuw %"class.absl::flags_internal::Flag", ptr %6, i32 0, i32 1
  %8 = getelementptr inbounds nuw %"class.absl::flags_internal::Flag", ptr %6, i32 0, i32 0
  %9 = getelementptr inbounds nuw %"class.absl::flags_internal::FlagImpl", ptr %8, i32 0, i32 9
  %10 = invoke noundef zeroext i1 @_ZNK4absl14flags_internal9FlagValueIiLNS0_20FlagValueStorageKindE0EE3GetERKNS0_12SequenceLockERi(ptr noundef nonnull align 8 dereferenceable(8) %7, ptr noundef nonnull align 8 dereferenceable(8) %9, ptr noundef nonnull align 4 dereferenceable(4) %3)
          to label %11 unwind label %19

11:                                               ; preds = %1
  %12 = xor i1 %10, true
  %13 = zext i1 %12 to i64
  %14 = call i64 @llvm.expect.i64(i64 %13, i64 0)
  %15 = icmp ne i64 %14, 0
  br i1 %15, label %16, label %23

16:                                               ; preds = %11
  %17 = getelementptr inbounds nuw %"class.absl::flags_internal::Flag", ptr %6, i32 0, i32 0
  invoke void @_ZNK4absl14flags_internal8FlagImpl4ReadIiTnNSt9enable_ifIXeqclsr14flags_internalE11StorageKindIT_EELNS0_20FlagValueStorageKindE0EEiE4typeELi0EEEvPS4_(ptr noundef nonnull align 8 dereferenceable(88) %17, ptr noundef %3)
          to label %18 unwind label %19

18:                                               ; preds = %16
  br label %23

19:                                               ; preds = %16, %1
  %20 = landingpad { ptr, i32 }
          cleanup
  %21 = extractvalue { ptr, i32 } %20, 0
  store ptr %21, ptr %4, align 8
  %22 = extractvalue { ptr, i32 } %20, 1
  store i32 %22, ptr %5, align 4
  call void @_ZZNK4absl14flags_internal4FlagIiE3GetEvEN1UD2Ev(ptr noundef nonnull align 4 dereferenceable(4) %3) #15
  call void @llvm.lifetime.end.p0(i64 4, ptr %3) #15
  br label %25

23:                                               ; preds = %18, %11
  %24 = load i32, ptr %3, align 4, !tbaa !14
  call void @_ZZNK4absl14flags_internal4FlagIiE3GetEvEN1UD2Ev(ptr noundef nonnull align 4 dereferenceable(4) %3) #15
  call void @llvm.lifetime.end.p0(i64 4, ptr %3) #15
  ret i32 %24

25:                                               ; preds = %19
  %26 = load ptr, ptr %4, align 8
  %27 = load i32, ptr %5, align 4
  %28 = insertvalue { ptr, i32 } poison, ptr %26, 0
  %29 = insertvalue { ptr, i32 } %28, i32 %27, 1
  resume { ptr, i32 } %29
}

; Function Attrs: mustprogress uwtable
define linkonce_odr dso_local noundef i32 @_ZN4absl14flags_internal12FlagImplPeer9InvokeGetIiNS0_4FlagIiEEEET_RKT0_(ptr noundef nonnull align 8 dereferenceable(96) %0) #1 comdat align 2 {
  %2 = alloca ptr, align 8
  store ptr %0, ptr %2, align 8, !tbaa !23
  %3 = load ptr, ptr %2, align 8, !tbaa !23
  %4 = call noundef i32 @_ZNK4absl14flags_internal4FlagIiE3GetEv(ptr noundef nonnull align 8 dereferenceable(96) %3)
  ret i32 %4
}

; Function Attrs: mustprogress uwtable
define linkonce_odr dso_local noundef i32 @_ZN4absl7GetFlagIiEET_RKNS_14flags_internal4FlagIS1_EE(ptr noundef nonnull align 8 dereferenceable(96) %0) #1 comdat {
  %2 = alloca ptr, align 8
  store ptr %0, ptr %2, align 8, !tbaa !23
  %3 = load ptr, ptr %2, align 8, !tbaa !23
  %4 = call noundef i32 @_ZN4absl14flags_internal12FlagImplPeer9InvokeGetIiNS0_4FlagIiEEEET_RKT0_(ptr noundef nonnull align 8 dereferenceable(96) %3)
  ret i32 %4
}

; Function Attrs: inlinehint mustprogress uwtable
define internal void @"_ZNK3$_4clEv"(ptr noundef nonnull align 1 dereferenceable(1) %0) #6 align 2 {
  %2 = alloca ptr, align 8
  store ptr %0, ptr %2, align 8, !tbaa !10
  %3 = call noundef i32 @_ZN4absl7GetFlagIiEET_RKNS_14flags_internal4FlagIS1_EE(ptr noundef nonnull align 8 dereferenceable(96) @FLAGS_v)
  %4 = call noundef i32 @_ZN4absl12log_internal21UpdateGlobalVLogLevelEi(i32 noundef %3)
  ret void
}

; Function Attrs: inlinehint mustprogress uwtable
define internal void @"_ZN3$_48__invokeEv"() #6 align 2 {
  %1 = alloca %class.anon.19, align 1
  call void @"_ZNK3$_4clEv"(ptr noundef nonnull align 1 dereferenceable(1) %1)
  ret void
}